target datalayout = "e-m:e-p270:32:32-p271:32:32-p272:64:64-i64:64-i128:128-f80:128-n8:16:32:64-S128"
target triple = "x86_64-pc-linux-gnu"

; Function Attrs: nounwind uwtable
define i32 @opt_cpuflags(ptr noundef %0, ptr noundef %1, ptr noundef %2) #0 {
  %4 = alloca i32, align 4
  %5 = alloca ptr, align 8
  %6 = alloca ptr, align 8
  %7 = alloca ptr, align 8
  %8 = alloca i32, align 4
  %9 = alloca i32, align 4
  %10 = alloca i32, align 4
  store ptr %0, ptr %5, align 8, !tbaa !4
  store ptr %1, ptr %6, align 8, !tbaa !8
  store ptr %2, ptr %7, align 8, !tbaa !8
  call void @llvm.lifetime.start.p0(i64 4, ptr %8) #11
  call void @llvm.lifetime.start.p0(i64 4, ptr %9) #11
  %11 = call i32 @av_get_cpu_flags()
  store i32 %11, ptr %9, align 4, !tbaa !10
  %12 = load ptr, ptr %7, align 8, !tbaa !8
  %13 = call i32 @av_parse_cpu_caps(ptr noundef %9, ptr noundef %12)
  store i32 %13, ptr %8, align 4, !tbaa !10
  %14 = icmp slt i32 %13, 0
  br i1 %14, label %15, label %17

15:                                               ; preds = %3
  %16 = load i32, ptr %8, align 4, !tbaa !10
  store i32 %16, ptr %4, align 4
  store i32 1, ptr %10, align 4
  br label %19

17:                                               ; preds = %3
  %18 = load i32, ptr %9, align 4, !tbaa !10
  call void @av_force_cpu_flags(i32 noundef %18)
  store i32 0, ptr %4, align 4
  store i32 1, ptr %10, align 4
  br label %19

19:                                               ; preds = %17, %15
  call void @llvm.lifetime.end.p0(i64 4, ptr %9) #11
  call void @llvm.lifetime.end.p0(i64 4, ptr %8) #11
  %20 = load i32, ptr %4, align 4
  ret i32 %20
}