; Function Attrs: nounwind uwtable
define range(i32 -2147483648, 1) i32 @opt_cpuflags(ptr noundef readnone captures(none) %0, ptr noundef readnone captures(none) %1, ptr noundef %2) local_unnamed_addr #2 {
  %4 = alloca i32, align 4
  call void @llvm.lifetime.start.p0(i64 4, ptr nonnull %4) #17
  %5 = tail call i32 @av_get_cpu_flags() #17
  store i32 %5, ptr %4, align 4, !tbaa !4
  %6 = call i32 @av_parse_cpu_caps(ptr noundef nonnull %4, ptr noundef %2) #17
  %7 = icmp slt i32 %6, 0
  br i1 %7, label %10, label %8

8:                                                ; preds = %3
  %9 = load i32, ptr %4, align 4, !tbaa !4
  call void @av_force_cpu_flags(i32 noundef %9) #17
  br label %10

10:                                               ; preds = %3, %8
  %.0 = phi i32 [ 0, %8 ], [ %6, %3 ]
  call void @llvm.lifetime.end.p0(i64 4, ptr nonnull %4) #17
  ret i32 %.0
}